; ModuleID = '7/1214.cpp'
source_filename = "7/1214.cpp"
target datalayout = "e-m:e-p270:32:32-p271:32:32-p272:64:64-i64:64-f80:128-n8:16:32:64-S128"
target triple = "x86_64-pc-linux-gnu"

%"class.std::ios_base::Init" = type { i8 }
%"class.std::basic_istream" = type { i32 (...)**, i64, %"class.std::basic_ios" }
%"class.std::basic_ios" = type { %"class.std::ios_base", %"class.std::basic_ostream"*, i8, i8, %"class.std::basic_streambuf"*, %"class.std::ctype"*, %"class.std::num_put"*, %"class.std::num_get"* }
%"class.std::ios_base" = type { i32 (...)**, i64, i64, i32, i32, i32, %"struct.std::ios_base::_Callback_list"*, %"struct.std::ios_base::_Words", [8 x %"struct.std::ios_base::_Words"], i32, %"struct.std::ios_base::_Words"*, %"class.std::locale" }
%"struct.std::ios_base::_Callback_list" = type { %"struct.std::ios_base::_Callback_list"*, void (i32, %"class.std::ios_base"*, i32)*, i32, i32 }
%"struct.std::ios_base::_Words" = type { i8*, i64 }
%"class.std::locale" = type { %"class.std::locale::_Impl"* }
%"class.std::locale::_Impl" = type { i32, %"class.std::locale::facet"**, i64, %"class.std::locale::facet"**, i8** }
%"class.std::locale::facet" = type <{ i32 (...)**, i32, [4 x i8] }>
%"class.std::basic_ostream" = type { i32 (...)**, %"class.std::basic_ios" }
%"class.std::basic_streambuf" = type { i32 (...)**, i8*, i8*, i8*, i8*, i8*, i8*, %"class.std::locale" }
%"class.std::ctype" = type <{ %"class.std::locale::facet.base", [4 x i8], %struct.__locale_struct*, i8, [7 x i8], i32*, i32*, i16*, i8, [256 x i8], [256 x i8], i8, [6 x i8] }>
%"class.std::locale::facet.base" = type <{ i32 (...)**, i32 }>
%struct.__locale_struct = type { [13 x %struct.__locale_data*], i16*, i32*, i32*, [13 x i8*] }
%struct.__locale_data = type opaque
%"class.std::num_put" = type { %"class.std::locale::facet.base", [4 x i8] }
%"class.std::num_get" = type { %"class.std::locale::facet.base", [4 x i8] }

@_ZStL8__ioinit = internal global %"class.std::ios_base::Init" zeroinitializer, align 1
@__dso_handle = external hidden global i8
@_ZSt3cin = external dso_local global %"class.std::basic_istream", align 8
@_ZSt4cout = external dso_local global %"class.std::basic_ostream", align 8
@llvm.global_ctors = appending global [1 x { i32, void ()*, i8* }] [{ i32, void ()*, i8* } { i32 65535, void ()* @_GLOBAL__sub_I_1214.cpp, i8* null }]

; Function Attrs: noinline uwtable
define internal void @__cxx_global_var_init() #0 section ".text.startup" {
  call void @_ZNSt8ios_base4InitC1Ev(%"class.std::ios_base::Init"* @_ZStL8__ioinit)
  %1 = call i32 @__cxa_atexit(void (i8*)* bitcast (void (%"class.std::ios_base::Init"*)* @_ZNSt8ios_base4InitD1Ev to void (i8*)*), i8* getelementptr inbounds (%"class.std::ios_base::Init", %"class.std::ios_base::Init"* @_ZStL8__ioinit, i32 0, i32 0), i8* @__dso_handle) #3
  ret void
}

declare dso_local void @_ZNSt8ios_base4InitC1Ev(%"class.std::ios_base::Init"*) unnamed_addr #1

; Function Attrs: nounwind
declare dso_local void @_ZNSt8ios_base4InitD1Ev(%"class.std::ios_base::Init"*) unnamed_addr #2

; Function Attrs: nounwind
declare dso_local i32 @__cxa_atexit(void (i8*)*, i8*, i8*) #3

; Function Attrs: noinline norecurse uwtable
define dso_local i32 @main() #4 {
  %1 = alloca i32, align 4
  %2 = alloca [258 x i8], align 16
  %3 = alloca [258 x i8], align 16
  %4 = alloca [258 x i8], align 16
  %5 = alloca [600 x i8], align 16
  %6 = alloca i32, align 4
  %7 = alloca i32, align 4
  %8 = alloca i32, align 4
  %9 = alloca i32, align 4
  %10 = alloca i32, align 4
  %11 = alloca i32, align 4
  %12 = alloca i32, align 4
  store i32 0, i32* %1, align 4
  store i32 0, i32* %9, align 4
  store i32 0, i32* %10, align 4
  store i32 0, i32* %12, align 4
  %13 = getelementptr inbounds [258 x i8], [258 x i8]* %2, i64 0, i64 0
  %14 = call dereferenceable(280) %"class.std::basic_istream"* @_ZStrsIcSt11char_traitsIcEERSt13basic_istreamIT_T0_ES6_PS3_(%"class.std::basic_istream"* dereferenceable(280) @_ZSt3cin, i8* %13)
  %15 = getelementptr inbounds [258 x i8], [258 x i8]* %3, i64 0, i64 0
  %16 = call dereferenceable(280) %"class.std::basic_istream"* @_ZStrsIcSt11char_traitsIcEERSt13basic_istreamIT_T0_ES6_PS3_(%"class.std::basic_istream"* dereferenceable(280) @_ZSt3cin, i8* %15)
  %17 = getelementptr inbounds [258 x i8], [258 x i8]* %4, i64 0, i64 0
  %18 = call dereferenceable(280) %"class.std::basic_istream"* @_ZStrsIcSt11char_traitsIcEERSt13basic_istreamIT_T0_ES6_PS3_(%"class.std::basic_istream"* dereferenceable(280) @_ZSt3cin, i8* %17)
  %19 = getelementptr inbounds [258 x i8], [258 x i8]* %2, i64 0, i64 0
  %20 = call i64 @strlen(i8* %19) #6
  %21 = trunc i64 %20 to i32
  store i32 %21, i32* %6, align 4
  %22 = getelementptr inbounds [258 x i8], [258 x i8]* %3, i64 0, i64 0
  %23 = call i64 @strlen(i8* %22) #6
  %24 = trunc i64 %23 to i32
  store i32 %24, i32* %7, align 4
  %25 = getelementptr inbounds [258 x i8], [258 x i8]* %4, i64 0, i64 0
  %26 = call i64 @strlen(i8* %25) #6
  %27 = trunc i64 %26 to i32
  store i32 %27, i32* %8, align 4
  store i32 0, i32* %9, align 4
  br label %28

28:                                               ; preds = %134, %0
  %29 = load i32, i32* %9, align 4
  %30 = load i32, i32* %6, align 4
  %31 = icmp slt i32 %29, %30
  br i1 %31, label %32, label %137

32:                                               ; preds = %28
  store i32 0, i32* %12, align 4
  %33 = load i32, i32* %9, align 4
  store i32 %33, i32* %11, align 4
  %34 = load i32, i32* %11, align 4
  %35 = sext i32 %34 to i64
  %36 = getelementptr inbounds [258 x i8], [258 x i8]* %2, i64 0, i64 %35
  %37 = load i8, i8* %36, align 1
  %38 = sext i8 %37 to i32
  %39 = load i32, i32* %10, align 4
  %40 = sext i32 %39 to i64
  %41 = getelementptr inbounds [258 x i8], [258 x i8]* %3, i64 0, i64 %40
  %42 = load i8, i8* %41, align 1
  %43 = sext i8 %42 to i32
  %44 = icmp eq i32 %38, %43
  br i1 %44, label %45, label %133

45:                                               ; preds = %32
  store i32 1, i32* %12, align 4
  store i32 0, i32* %10, align 4
  br label %46

46:                                               ; preds = %64, %45
  %47 = load i32, i32* %10, align 4
  %48 = load i32, i32* %7, align 4
  %49 = icmp slt i32 %47, %48
  br i1 %49, label %50, label %69

50:                                               ; preds = %46
  %51 = load i32, i32* %11, align 4
  %52 = sext i32 %51 to i64
  %53 = getelementptr inbounds [258 x i8], [258 x i8]* %2, i64 0, i64 %52
  %54 = load i8, i8* %53, align 1
  %55 = sext i8 %54 to i32
  %56 = load i32, i32* %10, align 4
  %57 = sext i32 %56 to i64
  %58 = getelementptr inbounds [258 x i8], [258 x i8]* %3, i64 0, i64 %57
  %59 = load i8, i8* %58, align 1
  %60 = sext i8 %59 to i32
  %61 = icmp ne i32 %55, %60
  br i1 %61, label %62, label %63

62:                                               ; preds = %50
  store i32 0, i32* %12, align 4
  store i32 0, i32* %10, align 4
  br label %69

63:                                               ; preds = %50
  br label %64

64:                                               ; preds = %63
  %65 = load i32, i32* %10, align 4
  %66 = add nsw i32 %65, 1
  store i32 %66, i32* %10, align 4
  %67 = load i32, i32* %11, align 4
  %68 = add nsw i32 %67, 1
  store i32 %68, i32* %11, align 4
  br label %46

69:                                               ; preds = %62, %46
  %70 = load i32, i32* %12, align 4
  %71 = icmp eq i32 %70, 1
  br i1 %71, label %72, label %132

72:                                               ; preds = %69
  %73 = load i32, i32* %9, align 4
  store i32 %73, i32* %11, align 4
  store i32 0, i32* %9, align 4
  br label %74

74:                                               ; preds = %128, %72
  %75 = load i32, i32* %9, align 4
  %76 = load i32, i32* %6, align 4
  %77 = load i32, i32* %8, align 4
  %78 = add nsw i32 %76, %77
  %79 = load i32, i32* %7, align 4
  %80 = sub nsw i32 %78, %79
  %81 = icmp slt i32 %75, %80
  br i1 %81, label %82, label %131

82:                                               ; preds = %74
  %83 = load i32, i32* %9, align 4
  %84 = load i32, i32* %11, align 4
  %85 = icmp sge i32 %83, %84
  br i1 %85, label %86, label %102

86:                                               ; preds = %82
  %87 = load i32, i32* %9, align 4
  %88 = load i32, i32* %11, align 4
  %89 = load i32, i32* %8, align 4
  %90 = add nsw i32 %88, %89
  %91 = icmp slt i32 %87, %90
  br i1 %91, label %92, label %102

92:                                               ; preds = %86
  %93 = load i32, i32* %9, align 4
  %94 = load i32, i32* %11, align 4
  %95 = sub nsw i32 %93, %94
  %96 = sext i32 %95 to i64
  %97 = getelementptr inbounds [258 x i8], [258 x i8]* %4, i64 0, i64 %96
  %98 = load i8, i8* %97, align 1
  %99 = load i32, i32* %9, align 4
  %100 = sext i32 %99 to i64
  %101 = getelementptr inbounds [600 x i8], [600 x i8]* %5, i64 0, i64 %100
  store i8 %98, i8* %101, align 1
  br label %127

102:                                              ; preds = %86, %82
  %103 = load i32, i32* %9, align 4
  %104 = load i32, i32* %11, align 4
  %105 = icmp slt i32 %103, %104
  br i1 %105, label %106, label %114

106:                                              ; preds = %102
  %107 = load i32, i32* %9, align 4
  %108 = sext i32 %107 to i64
  %109 = getelementptr inbounds [258 x i8], [258 x i8]* %2, i64 0, i64 %108
  %110 = load i8, i8* %109, align 1
  %111 = load i32, i32* %9, align 4
  %112 = sext i32 %111 to i64
  %113 = getelementptr inbounds [600 x i8], [600 x i8]* %5, i64 0, i64 %112
  store i8 %110, i8* %113, align 1
  br label %126

114:                                              ; preds = %102
  %115 = load i32, i32* %7, align 4
  %116 = load i32, i32* %9, align 4
  %117 = add nsw i32 %115, %116
  %118 = load i32, i32* %8, align 4
  %119 = sub nsw i32 %117, %118
  %120 = sext i32 %119 to i64
  %121 = getelementptr inbounds [258 x i8], [258 x i8]* %2, i64 0, i64 %120
  %122 = load i8, i8* %121, align 1
  %123 = load i32, i32* %9, align 4
  %124 = sext i32 %123 to i64
  %125 = getelementptr inbounds [600 x i8], [600 x i8]* %5, i64 0, i64 %124
  store i8 %122, i8* %125, align 1
  br label %126

126:                                              ; preds = %114, %106
  br label %127

127:                                              ; preds = %126, %92
  br label %128

128:                                              ; preds = %127
  %129 = load i32, i32* %9, align 4
  %130 = add nsw i32 %129, 1
  store i32 %130, i32* %9, align 4
  br label %74

131:                                              ; preds = %74
  br label %137

132:                                              ; preds = %69
  br label %133

133:                                              ; preds = %132, %32
  br label %134

134:                                              ; preds = %133
  %135 = load i32, i32* %9, align 4
  %136 = add nsw i32 %135, 1
  store i32 %136, i32* %9, align 4
  br label %28

137:                                              ; preds = %131, %28
  %138 = load i32, i32* %12, align 4
  %139 = icmp eq i32 %138, 1
  br i1 %139, label %140, label %159

140:                                              ; preds = %137
  store i32 0, i32* %9, align 4
  br label %141

141:                                              ; preds = %155, %140
  %142 = load i32, i32* %9, align 4
  %143 = load i32, i32* %6, align 4
  %144 = load i32, i32* %8, align 4
  %145 = add nsw i32 %143, %144
  %146 = load i32, i32* %7, align 4
  %147 = sub nsw i32 %145, %146
  %148 = icmp slt i32 %142, %147
  br i1 %148, label %149, label %158

149:                                              ; preds = %141
  %150 = load i32, i32* %9, align 4
  %151 = sext i32 %150 to i64
  %152 = getelementptr inbounds [600 x i8], [600 x i8]* %5, i64 0, i64 %151
  %153 = load i8, i8* %152, align 1
  %154 = call dereferenceable(272) %"class.std::basic_ostream"* @_ZStlsISt11char_traitsIcEERSt13basic_ostreamIcT_ES5_c(%"class.std::basic_ostream"* dereferenceable(272) @_ZSt4cout, i8 signext %153)
  br label %155

155:                                              ; preds = %149
  %156 = load i32, i32* %9, align 4
  %157 = add nsw i32 %156, 1
  store i32 %157, i32* %9, align 4
  br label %141

158:                                              ; preds = %141
  br label %174

159:                                              ; preds = %137
  store i32 0, i32* %9, align 4
  br label %160

160:                                              ; preds = %170, %159
  %161 = load i32, i32* %9, align 4
  %162 = load i32, i32* %6, align 4
  %163 = icmp slt i32 %161, %162
  br i1 %163, label %164, label %173

164:                                              ; preds = %160
  %165 = load i32, i32* %9, align 4
  %166 = sext i32 %165 to i64
  %167 = getelementptr inbounds [258 x i8], [258 x i8]* %2, i64 0, i64 %166
  %168 = load i8, i8* %167, align 1
  %169 = call dereferenceable(272) %"class.std::basic_ostream"* @_ZStlsISt11char_traitsIcEERSt13basic_ostreamIcT_ES5_c(%"class.std::basic_ostream"* dereferenceable(272) @_ZSt4cout, i8 signext %168)
  br label %170

170:                                              ; preds = %164
  %171 = load i32, i32* %9, align 4
  %172 = add nsw i32 %171, 1
  store i32 %172, i32* %9, align 4
  br label %160

173:                                              ; preds = %160
  br label %174

174:                                              ; preds = %173, %158
  ret i32 0
}

declare dso_local dereferenceable(280) %"class.std::basic_istream"* @_ZStrsIcSt11char_traitsIcEERSt13basic_istreamIT_T0_ES6_PS3_(%"class.std::basic_istream"* dereferenceable(280), i8*) #1

; Function Attrs: nounwind readonly
declare dso_local i64 @strlen(i8*) #5

declare dso_local dereferenceable(272) %"class.std::basic_ostream"* @_ZStlsISt11char_traitsIcEERSt13basic_ostreamIcT_ES5_c(%"class.std::basic_ostream"* dereferenceable(272), i8 signext) #1

; Function Attrs: noinline uwtable
define internal void @_GLOBAL__sub_I_1214.cpp() #0 section ".text.startup" {
  call void @__cxx_global_var_init()
  ret void
}


!llvm.module.flags = !{!0}
!llvm.ident = !{!1}

!0 = !{i32 1, !"wchar_size", i32 4}
!1 = !{!"clang version 10.0.0-4ubuntu1 "}
