; ModuleID = 'source-C-CXX/6/1214.cpp'
source_filename = "source-C-CXX/6/1214.cpp"
target datalayout = "e-m:e-p270:32:32-p271:32:32-p272:64:64-i64:64-f80:128-n8:16:32:64-S128"
target triple = "x86_64-pc-linux-gnu"

%"class.std::ios_base::Init" = type { i8 }
%"class.std::basic_istream" = type { i32 (...)**, i64, %"class.std::basic_ios" }
%"class.std::basic_ios" = type { %"class.std::ios_base", %"class.std::basic_ostream"*, i8, i8, %"class.std::basic_streambuf"*, %"class.std::ctype"*, %"class.std::num_put"*, %"class.std::num_get"* }
%"class.std::ios_base" = type { i32 (...)**, i64, i64, i32, i32, i32, %"struct.std::ios_base::_Callback_list"*, %"struct.std::ios_base::_Words", [8 x %"struct.std::ios_base::_Words"], i32, %"struct.std::ios_base::_Words"*, %"class.std::locale" }
%"struct.std::ios_base::_Callback_list" = type { %"struct.std::ios_base::_Callback_list"*, void (i32, %"class.std::ios_base"*, i32)*, i32, i32 }
%"struct.std::ios_base::_Words" = type { i8*, i64 }
%"class.std::locale" = type { %"class.std::locale::_Impl"* }
%"class.std::locale::_Impl" = type { i32, %"class.std::locale::facet"**, i64, %"class.std::locale::facet"**, i8** }
%"class.std::locale::facet" = type <{ i32 (...)**, i32, [4 x i8] }>
%"class.std::basic_ostream" = type { i32 (...)**, %"class.std::basic_ios" }
%"class.std::basic_streambuf" = type { i32 (...)**, i8*, i8*, i8*, i8*, i8*, i8*, %"class.std::locale" }
%"class.std::ctype" = type <{ %"class.std::locale::facet.base", [4 x i8], %struct.__locale_struct*, i8, [7 x i8], i32*, i32*, i16*, i8, [256 x i8], [256 x i8], i8, [6 x i8] }>
%"class.std::locale::facet.base" = type <{ i32 (...)**, i32 }>
%struct.__locale_struct = type { [13 x %struct.__locale_data*], i16*, i32*, i32*, [13 x i8*] }
%struct.__locale_data = type opaque
%"class.std::num_put" = type { %"class.std::locale::facet.base", [4 x i8] }
%"class.std::num_get" = type { %"class.std::locale::facet.base", [4 x i8] }

@_ZStL8__ioinit = internal global %"class.std::ios_base::Init" zeroinitializer, align 1
@__dso_handle = external hidden global i8
@_ZSt3cin = external global %"class.std::basic_istream", align 8
@_ZSt4cout = external global %"class.std::basic_ostream", align 8
@llvm.global_ctors = appending global [1 x { i32, void ()*, i8* }] [{ i32, void ()*, i8* } { i32 65535, void ()* @_GLOBAL__sub_I_1214.cpp, i8* null }]

declare void @_ZNSt8ios_base4InitC1Ev(%"class.std::ios_base::Init"* nonnull align 1 dereferenceable(1)) unnamed_addr #0

; Function Attrs: nounwind
declare void @_ZNSt8ios_base4InitD1Ev(%"class.std::ios_base::Init"* nonnull align 1 dereferenceable(1)) unnamed_addr #1

; Function Attrs: nofree nounwind
declare i32 @__cxa_atexit(void (i8*)*, i8*, i8*) local_unnamed_addr #2

; Function Attrs: mustprogress norecurse sspstrong uwtable
define dso_local i32 @main() local_unnamed_addr #3 {
  %1 = alloca i8, align 1
  %2 = alloca i8, align 1
  %3 = alloca [258 x i8], align 16
  %4 = alloca [258 x i8], align 16
  %5 = alloca [258 x i8], align 16
  %6 = alloca [600 x i8], align 16
  %7 = getelementptr inbounds [258 x i8], [258 x i8]* %3, i64 0, i64 0
  call void @llvm.lifetime.start.p0i8(i64 258, i8* nonnull %7) #7
  %8 = getelementptr inbounds [258 x i8], [258 x i8]* %4, i64 0, i64 0
  call void @llvm.lifetime.start.p0i8(i64 258, i8* nonnull %8) #7
  %9 = getelementptr inbounds [258 x i8], [258 x i8]* %5, i64 0, i64 0
  call void @llvm.lifetime.start.p0i8(i64 258, i8* nonnull %9) #7
  %10 = getelementptr inbounds [600 x i8], [600 x i8]* %6, i64 0, i64 0
  call void @llvm.lifetime.start.p0i8(i64 600, i8* nonnull %10) #7
  call void @_ZSt17__istream_extractRSiPcl(%"class.std::basic_istream"* nonnull align 8 dereferenceable(16) @_ZSt3cin, i8* nonnull %7, i64 258)
  call void @_ZSt17__istream_extractRSiPcl(%"class.std::basic_istream"* nonnull align 8 dereferenceable(16) @_ZSt3cin, i8* nonnull %8, i64 258)
  call void @_ZSt17__istream_extractRSiPcl(%"class.std::basic_istream"* nonnull align 8 dereferenceable(16) @_ZSt3cin, i8* nonnull %9, i64 258)
  %11 = call i64 @strlen(i8* noundef nonnull %7) #8
  %12 = trunc i64 %11 to i32
  %13 = call i64 @strlen(i8* noundef nonnull %8) #8
  %14 = trunc i64 %13 to i32
  %15 = call i64 @strlen(i8* noundef nonnull %9) #8
  %16 = trunc i64 %15 to i32
  %17 = load i8, i8* %8, align 16
  %18 = icmp sgt i32 %12, 0
  br i1 %18, label %19, label %115

19:                                               ; preds = %0
  %20 = icmp sgt i32 %14, 0
  %21 = and i64 %11, 4294967295
  br i1 %20, label %22, label %53

22:                                               ; preds = %19
  %23 = and i64 %13, 4294967295
  %24 = getelementptr inbounds [258 x i8], [258 x i8]* %4, i64 0, i64 0
  %25 = load i8, i8* %24, align 16
  %26 = icmp eq i8 %17, %25
  br label %27

27:                                               ; preds = %22, %35
  %28 = phi i64 [ 0, %22 ], [ %36, %35 ]
  %29 = getelementptr inbounds [258 x i8], [258 x i8]* %3, i64 0, i64 %28
  %30 = load i8, i8* %29, align 1, !tbaa !5
  %31 = icmp eq i8 %30, %17
  %32 = xor i1 %31, true
  %33 = xor i1 %26, true
  %34 = select i1 %32, i1 true, i1 %33
  br i1 %34, label %35, label %38

35:                                               ; preds = %44, %27
  %36 = add nuw nsw i64 %28, 1
  %37 = icmp eq i64 %36, %21
  br i1 %37, label %50, label %27, !llvm.loop !8

38:                                               ; preds = %27, %44
  %39 = phi i64 [ %42, %44 ], [ %28, %27 ]
  %40 = phi i64 [ %41, %44 ], [ 0, %27 ]
  %41 = add nuw nsw i64 %40, 1
  %42 = add nuw nsw i64 %39, 1
  %43 = icmp eq i64 %41, %23
  br i1 %43, label %58, label %44, !llvm.loop !10

44:                                               ; preds = %38
  %45 = getelementptr inbounds [258 x i8], [258 x i8]* %3, i64 0, i64 %42
  %46 = load i8, i8* %45, align 1, !tbaa !5
  %47 = getelementptr inbounds [258 x i8], [258 x i8]* %4, i64 0, i64 %41
  %48 = load i8, i8* %47, align 1, !tbaa !5
  %49 = icmp eq i8 %46, %48
  br i1 %49, label %38, label %35

50:                                               ; preds = %98, %35
  br i1 %18, label %51, label %115

51:                                               ; preds = %50
  %52 = and i64 %11, 4294967295
  br label %108

53:                                               ; preds = %19, %98
  %54 = phi i64 [ %99, %98 ], [ 0, %19 ]
  %55 = getelementptr inbounds [258 x i8], [258 x i8]* %3, i64 0, i64 %54
  %56 = load i8, i8* %55, align 1, !tbaa !5
  %57 = icmp eq i8 %56, %17
  br i1 %57, label %58, label %98

58:                                               ; preds = %53, %38
  %59 = phi i64 [ %28, %38 ], [ %54, %53 ]
  %60 = sub i32 %12, %14
  %61 = add i32 %60, %16
  %62 = sub i64 %13, %15
  %63 = icmp sgt i32 %61, 0
  br i1 %63, label %64, label %115

64:                                               ; preds = %58
  %65 = add i64 %59, %15
  %66 = shl i64 %65, 32
  %67 = ashr exact i64 %66, 32
  %68 = and i64 %59, 4294967295
  %69 = shl i64 %59, 32
  %70 = ashr exact i64 %69, 32
  %71 = zext i32 %61 to i64
  br label %75

72:                                               ; preds = %92
  br i1 %63, label %73, label %115

73:                                               ; preds = %72
  %74 = zext i32 %61 to i64
  br label %101

75:                                               ; preds = %64, %92
  %76 = phi i64 [ 0, %64 ], [ %96, %92 ]
  %77 = icmp uge i64 %76, %68
  %78 = icmp slt i64 %76, %67
  %79 = select i1 %77, i1 %78, i1 false
  br i1 %79, label %80, label %83

80:                                               ; preds = %75
  %81 = sub nsw i64 %76, %70
  %82 = getelementptr inbounds [258 x i8], [258 x i8]* %5, i64 0, i64 %81
  br label %92

83:                                               ; preds = %75
  %84 = icmp ult i64 %76, %68
  br i1 %84, label %85, label %87

85:                                               ; preds = %83
  %86 = getelementptr inbounds [258 x i8], [258 x i8]* %3, i64 0, i64 %76
  br label %92

87:                                               ; preds = %83
  %88 = add i64 %62, %76
  %89 = shl i64 %88, 32
  %90 = ashr exact i64 %89, 32
  %91 = getelementptr inbounds [258 x i8], [258 x i8]* %3, i64 0, i64 %90
  br label %92

92:                                               ; preds = %80, %87, %85
  %93 = phi i8* [ %82, %80 ], [ %91, %87 ], [ %86, %85 ]
  %94 = load i8, i8* %93, align 1, !tbaa !5
  %95 = getelementptr inbounds [600 x i8], [600 x i8]* %6, i64 0, i64 %76
  store i8 %94, i8* %95, align 1, !tbaa !5
  %96 = add nuw nsw i64 %76, 1
  %97 = icmp eq i64 %96, %71
  br i1 %97, label %72, label %75, !llvm.loop !11

98:                                               ; preds = %53
  %99 = add nuw nsw i64 %54, 1
  %100 = icmp eq i64 %99, %21
  br i1 %100, label %50, label %53, !llvm.loop !8

101:                                              ; preds = %73, %101
  %102 = phi i64 [ 0, %73 ], [ %106, %101 ]
  %103 = getelementptr inbounds [600 x i8], [600 x i8]* %6, i64 0, i64 %102
  %104 = load i8, i8* %103, align 1, !tbaa !5
  call void @llvm.lifetime.start.p0i8(i64 1, i8* nonnull %2)
  store i8 %104, i8* %2, align 1, !tbaa !5
  %105 = call nonnull align 8 dereferenceable(8) %"class.std::basic_ostream"* @_ZSt16__ostream_insertIcSt11char_traitsIcEERSt13basic_ostreamIT_T0_ES6_PKS3_l(%"class.std::basic_ostream"* nonnull align 8 dereferenceable(8) @_ZSt4cout, i8* nonnull %2, i64 1)
  call void @llvm.lifetime.end.p0i8(i64 1, i8* nonnull %2)
  %106 = add nuw nsw i64 %102, 1
  %107 = icmp eq i64 %106, %74
  br i1 %107, label %115, label %101, !llvm.loop !12

108:                                              ; preds = %51, %108
  %109 = phi i64 [ 0, %51 ], [ %113, %108 ]
  %110 = getelementptr inbounds [258 x i8], [258 x i8]* %3, i64 0, i64 %109
  %111 = load i8, i8* %110, align 1, !tbaa !5
  call void @llvm.lifetime.start.p0i8(i64 1, i8* nonnull %1)
  store i8 %111, i8* %1, align 1, !tbaa !5
  %112 = call nonnull align 8 dereferenceable(8) %"class.std::basic_ostream"* @_ZSt16__ostream_insertIcSt11char_traitsIcEERSt13basic_ostreamIT_T0_ES6_PKS3_l(%"class.std::basic_ostream"* nonnull align 8 dereferenceable(8) @_ZSt4cout, i8* nonnull %1, i64 1)
  call void @llvm.lifetime.end.p0i8(i64 1, i8* nonnull %1)
  %113 = add nuw nsw i64 %109, 1
  %114 = icmp eq i64 %113, %52
  br i1 %114, label %115, label %108, !llvm.loop !13

115:                                              ; preds = %108, %101, %58, %0, %50, %72
  call void @llvm.lifetime.end.p0i8(i64 600, i8* nonnull %10) #7
  call void @llvm.lifetime.end.p0i8(i64 258, i8* nonnull %9) #7
  call void @llvm.lifetime.end.p0i8(i64 258, i8* nonnull %8) #7
  call void @llvm.lifetime.end.p0i8(i64 258, i8* nonnull %7) #7
  ret i32 0
}

; Function Attrs: argmemonly mustprogress nofree nosync nounwind willreturn
declare void @llvm.lifetime.start.p0i8(i64 immarg, i8* nocapture) #4

; Function Attrs: argmemonly mustprogress nofree nounwind readonly willreturn
declare i64 @strlen(i8* nocapture) local_unnamed_addr #5

; Function Attrs: argmemonly mustprogress nofree nosync nounwind willreturn
declare void @llvm.lifetime.end.p0i8(i64 immarg, i8* nocapture) #4

declare void @_ZSt17__istream_extractRSiPcl(%"class.std::basic_istream"* nonnull align 8 dereferenceable(16), i8*, i64) local_unnamed_addr #0

declare nonnull align 8 dereferenceable(8) %"class.std::basic_ostream"* @_ZSt16__ostream_insertIcSt11char_traitsIcEERSt13basic_ostreamIT_T0_ES6_PKS3_l(%"class.std::basic_ostream"* nonnull align 8 dereferenceable(8), i8*, i64) local_unnamed_addr #0

; Function Attrs: sspstrong uwtable
define internal void @_GLOBAL__sub_I_1214.cpp() #6 section ".text.startup" {
  tail call void @_ZNSt8ios_base4InitC1Ev(%"class.std::ios_base::Init"* nonnull align 1 dereferenceable(1) @_ZStL8__ioinit)
  %1 = tail call i32 @__cxa_atexit(void (i8*)* bitcast (void (%"class.std::ios_base::Init"*)* @_ZNSt8ios_base4InitD1Ev to void (i8*)*), i8* getelementptr inbounds (%"class.std::ios_base::Init", %"class.std::ios_base::Init"* @_ZStL8__ioinit, i64 0, i32 0), i8* nonnull @__dso_handle) #7
  ret void
}


!llvm.module.flags = !{!0, !1, !2, !3}
!llvm.ident = !{!4}

!0 = !{i32 1, !"wchar_size", i32 4}
!1 = !{i32 7, !"PIC Level", i32 2}
!2 = !{i32 7, !"PIE Level", i32 2}
!3 = !{i32 7, !"uwtable", i32 1}
!4 = !{!"clang version 13.0.0"}
!5 = !{!6, !6, i64 0}
!6 = !{!"omnipotent char", !7, i64 0}
!7 = !{!"Simple C++ TBAA"}
!8 = distinct !{!8, !9}
!9 = !{!"llvm.loop.mustprogress"}
!10 = distinct !{!10, !9}
!11 = distinct !{!11, !9}
!12 = distinct !{!12, !9}
!13 = distinct !{!13, !9}
